target datalayout = "e-m:e-p270:32:32-p271:32:32-p272:64:64-i64:64-i128:128-f80:128-n8:16:32:64-S128"
target triple = "x86_64-pc-linux-gnu"

%"struct.std::array" = type { [5 x ptr] }
%"struct.std::array.2" = type { [5 x i32] }
%"class.std::filesystem::__cxx11::path" = type { %"class.std::__cxx11::basic_string", %"struct.std::filesystem::__cxx11::path::_List" }
%"class.std::__cxx11::basic_string" = type { %"struct.std::__cxx11::basic_string<char>::_Alloc_hider", i64, %union.anon }
%"struct.std::__cxx11::basic_string<char>::_Alloc_hider" = type { ptr }
%union.anon = type { i64, [8 x i8] }
%"struct.std::filesystem::__cxx11::path::_List" = type { %"class.std::unique_ptr" }
%"class.std::unique_ptr" = type { %"struct.std::__uniq_ptr_data" }
%"struct.std::__uniq_ptr_data" = type { %"class.std::__uniq_ptr_impl" }
%"class.std::__uniq_ptr_impl" = type { %"class.std::tuple" }
%"class.std::tuple" = type { %"struct.std::_Tuple_impl" }
%"struct.std::_Tuple_impl" = type { %"struct.std::_Head_base.1" }
%"struct.std::_Head_base.1" = type { ptr }

@__const._Z7do_viewPK16gmx_output_env_tPKcS3_.viewProgram = private unnamed_addr constant %"struct.std::array" { [5 x ptr] [ptr null, ptr @.str, ptr @.str.1, ptr null, ptr @.str.2] }, align 8
@.str.3 = private unnamed_addr constant [8 x i8] c"DISPLAY\00", align 1
@stderr = external global ptr, align 8
@.str.4 = private unnamed_addr constant [51 x i8] c"Can not view %s, no DISPLAY environment variable.\0A\00", align 1
@.str.5 = private unnamed_addr constant [12 x i8] c"GMX_VIEW_%s\00", align 1
@.str.6 = private unnamed_addr constant [13 x i8] c"GMX_USE_XMGR\00", align 1
@.str.7 = private unnamed_addr constant [5 x i8] c"xmgr\00", align 1
@.str.8 = private unnamed_addr constant [8 x i8] c"xmgrace\00", align 1
@.str.9 = private unnamed_addr constant [31 x i8] c"Don't know how to view file %s\00", align 1
@.str.10 = private unnamed_addr constant [11 x i8] c"%s %s %s &\00", align 1
@.str.11 = private unnamed_addr constant [1 x i8] zeroinitializer, align 1
@.str.12 = private unnamed_addr constant [16 x i8] c"Executing '%s'\0A\00", align 1
@.str.13 = private unnamed_addr constant [128 x i8] c"generated/home/dtcxzyw/WorkSpace/Projects/compilers/llvm-opt-benchmark/bench/gromacs/gromacs/src/gromacs/commandline/viewit.cpp\00", align 1
@.str.14 = private unnamed_addr constant [29 x i8] c"Failed executing command: %s\00", align 1
@_ZL15canViewFileType = internal constant %"struct.std::array.2" { [5 x i32] [i32 0, i32 34, i32 40, i32 20, i32 13] }, align 4

; Function Attrs: mustprogress nounwind uwtable
define linkonce_odr noundef nonnull align 4 dereferenceable(4) ptr @_ZNSt14__array_traitsIiLm5EE6_S_refERA5_Kim(ptr noundef nonnull align 4 dereferenceable(20) %0, i64 noundef %1) #5 comdat align 2 {
  %3 = alloca ptr, align 8
  %4 = alloca i64, align 8
  store ptr %0, ptr %3, align 8, !tbaa !27
  store i64 %1, ptr %4, align 8, !tbaa !19
  %5 = load ptr, ptr %3, align 8, !tbaa !27
  %6 = load i64, ptr %4, align 8, !tbaa !19
  %7 = getelementptr inbounds nuw [5 x i32], ptr %5, i64 0, i64 %6
  ret ptr %7
}

; Function Attrs: mustprogress nounwind uwtable
define linkonce_odr noundef nonnull align 8 dereferenceable(8) ptr @_ZNSt14__array_traitsIPKcLm5EE6_S_refERA5_KS1_m(ptr noundef nonnull align 8 dereferenceable(40) %0, i64 noundef %1) #5 comdat align 2 {
  %3 = alloca ptr, align 8
  %4 = alloca i64, align 8
  store ptr %0, ptr %3, align 8, !tbaa !29
  store i64 %1, ptr %4, align 8, !tbaa !19
  %5 = load ptr, ptr %3, align 8, !tbaa !29
  %6 = load i64, ptr %4, align 8, !tbaa !19
  %7 = getelementptr inbounds nuw [5 x ptr], ptr %5, i64 0, i64 %6
  ret ptr %7
}

; Function Attrs: mustprogress nounwind uwtable
define linkonce_odr noundef nonnull align 4 dereferenceable(4) ptr @_ZNKSt5arrayIiLm5EEixEm(ptr noundef nonnull align 4 dereferenceable(20) %0, i64 noundef %1) #5 comdat align 2 {
  %3 = alloca ptr, align 8
  %4 = alloca i64, align 8
  store ptr %0, ptr %3, align 8, !tbaa !25
  store i64 %1, ptr %4, align 8, !tbaa !19
  %5 = load ptr, ptr %3, align 8
  %6 = getelementptr inbounds nuw %"struct.std::array.2", ptr %5, i32 0, i32 0
  %7 = load i64, ptr %4, align 8, !tbaa !19
  %8 = call noundef nonnull align 4 dereferenceable(4) ptr @_ZNSt14__array_traitsIiLm5EE6_S_refERA5_Kim(ptr noundef nonnull align 4 dereferenceable(20) %6, i64 noundef %7) #13
  ret ptr %8
}

; Function Attrs: mustprogress nounwind uwtable
define linkonce_odr noundef nonnull align 8 dereferenceable(8) ptr @_ZNSt5arrayIPKcLm5EEixEm(ptr noundef nonnull align 8 dereferenceable(40) %0, i64 noundef %1) #5 comdat align 2 {
  %3 = alloca ptr, align 8
  %4 = alloca i64, align 8
  store ptr %0, ptr %3, align 8, !tbaa !17
  store i64 %1, ptr %4, align 8, !tbaa !19
  %5 = load ptr, ptr %3, align 8
  %6 = getelementptr inbounds nuw %"struct.std::array", ptr %5, i32 0, i32 0
  %7 = load i64, ptr %4, align 8, !tbaa !19
  %8 = call noundef nonnull align 8 dereferenceable(8) ptr @_ZNSt14__array_traitsIPKcLm5EE6_S_refERA5_KS1_m(ptr noundef nonnull align 8 dereferenceable(40) %6, i64 noundef %7) #13
  ret ptr %8
}

; Function Attrs: mustprogress nounwind uwtable
define internal noundef i32 @_ZL8can_viewi(i32 noundef %0) #5 {
  %2 = alloca i32, align 4
  %3 = alloca i32, align 4
  %4 = alloca i32, align 4
  %5 = alloca i32, align 4
  store i32 %0, ptr %3, align 4, !tbaa !13
  call void @llvm.lifetime.start.p0(i64 4, ptr %4) #13
  store i32 1, ptr %4, align 4, !tbaa !13
  br label %6

6:                                                ; preds = %20, %1
  %7 = load i32, ptr %4, align 4, !tbaa !13
  %8 = icmp slt i32 %7, 5
  br i1 %8, label %10, label %9

9:                                                ; preds = %6
  store i32 2, ptr %5, align 4
  br label %23

10:                                               ; preds = %6
  %11 = load i32, ptr %3, align 4, !tbaa !13
  %12 = load i32, ptr %4, align 4, !tbaa !13
  %13 = sext i32 %12 to i64
  %14 = call noundef nonnull align 4 dereferenceable(4) ptr @_ZNKSt5arrayIiLm5EEixEm(ptr noundef nonnull align 4 dereferenceable(20) @_ZL15canViewFileType, i64 noundef %13) #13
  %15 = load i32, ptr %14, align 4, !tbaa !13
  %16 = icmp eq i32 %11, %15
  br i1 %16, label %17, label %19

17:                                               ; preds = %10
  %18 = load i32, ptr %4, align 4, !tbaa !13
  store i32 %18, ptr %2, align 4
  store i32 1, ptr %5, align 4
  br label %23

19:                                               ; preds = %10
  br label %20

20:                                               ; preds = %19
  %21 = load i32, ptr %4, align 4, !tbaa !13
  %22 = add nsw i32 %21, 1
  store i32 %22, ptr %4, align 4, !tbaa !13
  br label %6, !llvm.loop !15

23:                                               ; preds = %17, %9
  call void @llvm.lifetime.end.p0(i64 4, ptr %4) #13
  %24 = load i32, ptr %5, align 4
  switch i32 %24, label %28 [
    i32 2, label %25
    i32 1, label %26
  ]

25:                                               ; preds = %23
  store i32 0, ptr %2, align 4
  br label %26

26:                                               ; preds = %25, %23
  %27 = load i32, ptr %2, align 4
  ret i32 %27

28:                                               ; preds = %23
  unreachable
}

; Function Attrs: mustprogress uwtable
define void @_Z7do_viewPK16gmx_output_env_tPKcS3_(ptr noundef %0, ptr noundef %1, ptr noundef %2) #0 personality ptr @__gxx_personality_v0 {
  %4 = alloca ptr, align 8
  %5 = alloca ptr, align 8
  %6 = alloca ptr, align 8
  %7 = alloca %"struct.std::array", align 8
  %8 = alloca [4096 x i8], align 16
  %9 = alloca [4096 x i8], align 16
  %10 = alloca ptr, align 8
  %11 = alloca i32, align 4
  %12 = alloca i32, align 4
  %13 = alloca i32, align 4
  %14 = alloca %"class.std::filesystem::__cxx11::path", align 8
  %15 = alloca ptr, align 8
  %16 = alloca i32, align 4
  store ptr %0, ptr %4, align 8, !tbaa !4
  store ptr %1, ptr %5, align 8, !tbaa !9
  store ptr %2, ptr %6, align 8, !tbaa !9
  call void @llvm.lifetime.start.p0(i64 40, ptr %7) #13
  call void @llvm.memcpy.p0.p0.i64(ptr align 8 %7, ptr align 8 @__const._Z7do_viewPK16gmx_output_env_tPKcS3_.viewProgram, i64 40, i1 false)
  call void @llvm.lifetime.start.p0(i64 4096, ptr %8) #13
  call void @llvm.lifetime.start.p0(i64 4096, ptr %9) #13
  call void @llvm.lifetime.start.p0(i64 8, ptr %10) #13
  call void @llvm.lifetime.start.p0(i64 4, ptr %11) #13
  call void @llvm.lifetime.start.p0(i64 4, ptr %12) #13
  %17 = load ptr, ptr %4, align 8, !tbaa !4
  %18 = call noundef zeroext i1 @_Z19output_env_get_viewPK16gmx_output_env_t(ptr noundef %17)
  br i1 %18, label %19, label %100

19:                                               ; preds = %3
  %20 = load ptr, ptr %5, align 8, !tbaa !9
  %21 = icmp ne ptr %20, null
  br i1 %21, label %22, label %100

22:                                               ; preds = %19
  %23 = call ptr @getenv(ptr noundef @.str.3) #13
  %24 = icmp eq ptr %23, null
  br i1 %24, label %25, label %29

25:                                               ; preds = %22
  %26 = load ptr, ptr @stderr, align 8, !tbaa !11
  %27 = load ptr, ptr %5, align 8, !tbaa !9
  %28 = call i32 (ptr, ptr, ...) @fprintf(ptr noundef %26, ptr noundef @.str.4, ptr noundef %27) #13
  br label %99

29:                                               ; preds = %22
  %30 = load ptr, ptr %5, align 8, !tbaa !9
  %31 = call noundef i32 @_Z6fn2ftpPKc(ptr noundef %30)
  store i32 %31, ptr %11, align 4, !tbaa !13
  %32 = getelementptr inbounds [4096 x i8], ptr %9, i64 0, i64 0
  %33 = load i32, ptr %11, align 4, !tbaa !13
  %34 = call noundef ptr @_Z7ftp2exti(i32 noundef %33)
  %35 = call i32 (ptr, ptr, ...) @sprintf(ptr noundef %32, ptr noundef @.str.5, ptr noundef %34) #13
  %36 = getelementptr inbounds [4096 x i8], ptr %9, i64 0, i64 0
  call void @_Z8upstringPc(ptr noundef %36)
  %37 = load i32, ptr %11, align 4, !tbaa !13
  switch i32 %37, label %49 [
    i32 20, label %38
  ]

38:                                               ; preds = %29
  %39 = getelementptr inbounds [4096 x i8], ptr %9, i64 0, i64 0
  %40 = call ptr @getenv(ptr noundef %39) #13
  store ptr %40, ptr %10, align 8, !tbaa !9
  %41 = icmp ne ptr %40, null
  br i1 %41, label %48, label %42

42:                                               ; preds = %38
  %43 = call ptr @getenv(ptr noundef @.str.6) #13
  %44 = icmp ne ptr %43, null
  br i1 %44, label %45, label %46

45:                                               ; preds = %42
  store ptr @.str.7, ptr %10, align 8, !tbaa !9
  br label %47

46:                                               ; preds = %42
  store ptr @.str.8, ptr %10, align 8, !tbaa !9
  br label %47

47:                                               ; preds = %46, %45
  br label %48

48:                                               ; preds = %47, %38
  br label %68

49:                                               ; preds = %29
  %50 = load i32, ptr %11, align 4, !tbaa !13
  %51 = call noundef i32 @_ZL8can_viewi(i32 noundef %50)
  store i32 %51, ptr %12, align 4, !tbaa !13
  %52 = icmp ne i32 %51, 0
  br i1 %52, label %53, label %63

53:                                               ; preds = %49
  %54 = getelementptr inbounds [4096 x i8], ptr %9, i64 0, i64 0
  %55 = call ptr @getenv(ptr noundef %54) #13
  store ptr %55, ptr %10, align 8, !tbaa !9
  %56 = icmp ne ptr %55, null
  br i1 %56, label %62, label %57

57:                                               ; preds = %53
  %58 = load i32, ptr %12, align 4, !tbaa !13
  %59 = sext i32 %58 to i64
  %60 = call noundef nonnull align 8 dereferenceable(8) ptr @_ZNSt5arrayIPKcLm5EEixEm(ptr noundef nonnull align 8 dereferenceable(40) %7, i64 noundef %59) #13
  %61 = load ptr, ptr %60, align 8, !tbaa !9
  store ptr %61, ptr %10, align 8, !tbaa !9
  br label %62

62:                                               ; preds = %57, %53
  br label %67

63:                                               ; preds = %49
  %64 = load ptr, ptr @stderr, align 8, !tbaa !11
  %65 = load ptr, ptr %5, align 8, !tbaa !9
  %66 = call i32 (ptr, ptr, ...) @fprintf(ptr noundef %64, ptr noundef @.str.9, ptr noundef %65) #13
  store i32 1, ptr %13, align 4
  br label %101

67:                                               ; preds = %62
  br label %68

68:                                               ; preds = %67, %48
  %69 = load ptr, ptr %10, align 8, !tbaa !9
  %70 = call i64 @strlen(ptr noundef %69) #14
  %71 = icmp ne i64 %70, 0
  br i1 %71, label %72, label %98

72:                                               ; preds = %68
  %73 = getelementptr inbounds [4096 x i8], ptr %8, i64 0, i64 0
  %74 = load ptr, ptr %10, align 8, !tbaa !9
  %75 = load ptr, ptr %6, align 8, !tbaa !9
  %76 = icmp ne ptr %75, null
  br i1 %76, label %77, label %79

77:                                               ; preds = %72
  %78 = load ptr, ptr %6, align 8, !tbaa !9
  br label %80

79:                                               ; preds = %72
  br label %80

80:                                               ; preds = %79, %77
  %81 = phi ptr [ %78, %77 ], [ @.str.11, %79 ]
  %82 = load ptr, ptr %5, align 8, !tbaa !9
  %83 = call i32 (ptr, ptr, ...) @sprintf(ptr noundef %73, ptr noundef @.str.10, ptr noundef %74, ptr noundef %81, ptr noundef %82) #13
  %84 = load ptr, ptr @stderr, align 8, !tbaa !11
  %85 = getelementptr inbounds [4096 x i8], ptr %8, i64 0, i64 0
  %86 = call i32 (ptr, ptr, ...) @fprintf(ptr noundef %84, ptr noundef @.str.12, ptr noundef %85) #13
  %87 = getelementptr inbounds [4096 x i8], ptr %8, i64 0, i64 0
  %88 = call i32 @system(ptr noundef %87)
  %89 = icmp ne i32 0, %88
  br i1 %89, label %90, label %97

90:                                               ; preds = %80
  call void @llvm.lifetime.start.p0(i64 40, ptr %14) #13
  call void @_ZNSt10filesystem7__cxx114pathC2IA128_cS1_EERKT_NS1_6formatE(ptr noundef nonnull align 8 dereferenceable(40) %14, ptr noundef nonnull align 1 dereferenceable(128) @.str.13, i8 noundef zeroext 2)
  %91 = getelementptr inbounds [4096 x i8], ptr %8, i64 0, i64 0
  invoke void (i32, ptr, i32, ptr, ...) @_Z9gmx_fataliRKNSt10filesystem7__cxx114pathEiPKcz(i32 noundef 0, ptr noundef nonnull align 8 dereferenceable(40) %14, i32 noundef 128, ptr noundef @.str.14, ptr noundef %91) #15
          to label %92 unwind label %93

92:                                               ; preds = %90
  unreachable

93:                                               ; preds = %90
  %94 = landingpad { ptr, i32 }
          cleanup
  %95 = extractvalue { ptr, i32 } %94, 0
  store ptr %95, ptr %15, align 8
  %96 = extractvalue { ptr, i32 } %94, 1
  store i32 %96, ptr %16, align 4
  call void @_ZNSt10filesystem7__cxx114pathD2Ev(ptr noundef nonnull align 8 dereferenceable(40) %14) #13
  call void @llvm.lifetime.end.p0(i64 40, ptr %14) #13
  call void @llvm.lifetime.end.p0(i64 4, ptr %12) #13
  call void @llvm.lifetime.end.p0(i64 4, ptr %11) #13
  call void @llvm.lifetime.end.p0(i64 8, ptr %10) #13
  call void @llvm.lifetime.end.p0(i64 4096, ptr %9) #13
  call void @llvm.lifetime.end.p0(i64 4096, ptr %8) #13
  call void @llvm.lifetime.end.p0(i64 40, ptr %7) #13
  br label %104

97:                                               ; preds = %80
  br label %98

98:                                               ; preds = %97, %68
  br label %99

99:                                               ; preds = %98, %25
  br label %100

100:                                              ; preds = %99, %19, %3
  store i32 0, ptr %13, align 4
  br label %101

101:                                              ; preds = %100, %63
  call void @llvm.lifetime.end.p0(i64 4, ptr %12) #13
  call void @llvm.lifetime.end.p0(i64 4, ptr %11) #13
  call void @llvm.lifetime.end.p0(i64 8, ptr %10) #13
  call void @llvm.lifetime.end.p0(i64 4096, ptr %9) #13
  call void @llvm.lifetime.end.p0(i64 4096, ptr %8) #13
  call void @llvm.lifetime.end.p0(i64 40, ptr %7) #13
  %102 = load i32, ptr %13, align 4
  switch i32 %102, label %109 [
    i32 0, label %103
    i32 1, label %103
  ]

103:                                              ; preds = %101, %101
  ret void

104:                                              ; preds = %93
  %105 = load ptr, ptr %15, align 8
  %106 = load i32, ptr %16, align 4
  %107 = insertvalue { ptr, i32 } poison, ptr %105, 0
  %108 = insertvalue { ptr, i32 } %107, i32 %106, 1
  resume { ptr, i32 } %108

109:                                              ; preds = %101
  unreachable
}