; Function Attrs: mustprogress uwtable
define void @_Z7do_viewPK16gmx_output_env_tPKcS3_(ptr noundef %0, ptr noundef %1, ptr noundef %2) local_unnamed_addr #0 personality ptr @__gxx_personality_v0 {
  %4 = alloca [4096 x i8], align 16
  %5 = alloca [4096 x i8], align 16
  %6 = alloca %"class.std::filesystem::__cxx11::path", align 8
  call void @llvm.lifetime.start.p0(i64 4096, ptr nonnull %4) #13
  call void @llvm.lifetime.start.p0(i64 4096, ptr nonnull %5) #13
  %7 = tail call noundef zeroext i1 @_Z19output_env_get_viewPK16gmx_output_env_t(ptr noundef %0)
  %8 = icmp ne ptr %1, null
  %or.cond = and i1 %8, %7
  br i1 %or.cond, label %9, label %45

9:                                                ; preds = %3
  %10 = tail call ptr @getenv(ptr noundef nonnull @.str.3) #13
  %11 = icmp eq ptr %10, null
  br i1 %11, label %12, label %15

12:                                               ; preds = %9
  %13 = load ptr, ptr @stderr, align 8, !tbaa !4
  %14 = tail call i32 (ptr, ptr, ...) @fprintf(ptr noundef %13, ptr noundef nonnull @.str.4, ptr noundef nonnull %1) #14
  br label %45

15:                                               ; preds = %9
  %16 = tail call noundef i32 @_Z6fn2ftpPKc(ptr noundef nonnull %1)
  %17 = tail call noundef ptr @_Z7ftp2exti(i32 noundef %16)
  %18 = call i32 (ptr, ptr, ...) @sprintf(ptr noundef nonnull dereferenceable(1) %5, ptr noundef nonnull dereferenceable(1) @.str.5, ptr noundef %17) #13
  call void @_Z8upstringPc(ptr noundef nonnull %5)
  %cond = icmp eq i32 %16, 20
  br i1 %cond, label %19, label %.preheader

19:                                               ; preds = %15
  %20 = call ptr @getenv(ptr noundef nonnull %5) #13
  %.not22 = icmp eq ptr %20, null
  br i1 %.not22, label %21, label %34

21:                                               ; preds = %19
  %22 = call ptr @getenv(ptr noundef nonnull @.str.6) #13
  %.not23 = icmp eq ptr %22, null
  %.str.8..str.7 = select i1 %.not23, ptr @.str.8, ptr @.str.7
  br label %34

.preheader:                                       ; preds = %15, %26
  %indvars.iv.i = phi i64 [ %indvars.iv.next.i, %26 ], [ 1, %15 ]
  %23 = getelementptr inbounds nuw [5 x i32], ptr @_ZL15canViewFileType, i64 0, i64 %indvars.iv.i
  %24 = load i32, ptr %23, align 4, !tbaa !9
  %25 = icmp eq i32 %16, %24
  br i1 %25, label %_ZL8can_viewi.exit, label %26

26:                                               ; preds = %.preheader
  %indvars.iv.next.i = add nuw nsw i64 %indvars.iv.i, 1
  %exitcond.i = icmp eq i64 %indvars.iv.next.i, 5
  br i1 %exitcond.i, label %_ZL8can_viewi.exit.thread, label %.preheader, !llvm.loop !11

_ZL8can_viewi.exit:                               ; preds = %.preheader
  %27 = call ptr @getenv(ptr noundef nonnull %5) #13
  %.not21 = icmp eq ptr %27, null
  br i1 %.not21, label %28, label %34

28:                                               ; preds = %_ZL8can_viewi.exit
  %sext = shl i64 %indvars.iv.i, 32
  %29 = ashr exact i64 %sext, 32
  %30 = getelementptr inbounds nuw [5 x ptr], ptr @__const._Z7do_viewPK16gmx_output_env_tPKcS3_.viewProgram, i64 0, i64 %29
  %31 = load ptr, ptr %30, align 8, !tbaa !13
  br label %34

_ZL8can_viewi.exit.thread:                        ; preds = %26
  %32 = load ptr, ptr @stderr, align 8, !tbaa !4
  %33 = call i32 (ptr, ptr, ...) @fprintf(ptr noundef %32, ptr noundef nonnull @.str.9, ptr noundef nonnull %1) #14
  br label %45

34:                                               ; preds = %21, %28, %_ZL8can_viewi.exit, %19
  %.0 = phi ptr [ %20, %19 ], [ %27, %_ZL8can_viewi.exit ], [ %31, %28 ], [ %.str.8..str.7, %21 ]
  %char0 = load i8, ptr %.0, align 1
  %.not24 = icmp eq i8 %char0, 0
  br i1 %.not24, label %45, label %35

35:                                               ; preds = %34
  %.not25 = icmp eq ptr %2, null
  %36 = select i1 %.not25, ptr @.str.11, ptr %2
  %37 = call i32 (ptr, ptr, ...) @sprintf(ptr noundef nonnull dereferenceable(1) %4, ptr noundef nonnull dereferenceable(1) @.str.10, ptr noundef nonnull %.0, ptr noundef nonnull %36, ptr noundef nonnull %1) #13
  %38 = load ptr, ptr @stderr, align 8, !tbaa !4
  %39 = call i32 (ptr, ptr, ...) @fprintf(ptr noundef %38, ptr noundef nonnull @.str.12, ptr noundef nonnull %4) #14
  %40 = call i32 @system(ptr noundef nonnull %4)
  %.not26 = icmp eq i32 %40, 0
  br i1 %.not26, label %45, label %41

41:                                               ; preds = %35
  call void @llvm.lifetime.start.p0(i64 40, ptr nonnull %6) #13
  call void @_ZNSt10filesystem7__cxx114pathC2IA128_cS1_EERKT_NS1_6formatE(ptr noundef nonnull align 8 dereferenceable(40) %6, ptr noundef nonnull align 1 dereferenceable(128) @.str.13, i8 noundef zeroext 2)
  invoke void (i32, ptr, i32, ptr, ...) @_Z9gmx_fataliRKNSt10filesystem7__cxx114pathEiPKcz(i32 noundef 0, ptr noundef nonnull align 8 dereferenceable(40) %6, i32 noundef 128, ptr noundef nonnull @.str.14, ptr noundef nonnull %4) #15
          to label %42 unwind label %43

42:                                               ; preds = %41
  unreachable

43:                                               ; preds = %41
  %44 = landingpad { ptr, i32 }
          cleanup
  call void @_ZNSt10filesystem7__cxx114pathD2Ev(ptr noundef nonnull align 8 dereferenceable(40) %6) #13
  call void @llvm.lifetime.end.p0(i64 40, ptr nonnull %6) #13
  call void @llvm.lifetime.end.p0(i64 4096, ptr nonnull %5) #13
  call void @llvm.lifetime.end.p0(i64 4096, ptr nonnull %4) #13
  resume { ptr, i32 } %44

45:                                               ; preds = %3, %34, %35, %12, %_ZL8can_viewi.exit.thread
  call void @llvm.lifetime.end.p0(i64 4096, ptr nonnull %5) #13
  call void @llvm.lifetime.end.p0(i64 4096, ptr nonnull %4) #13
  ret void
}